target datalayout = "e-m:e-p270:32:32-p271:32:32-p272:64:64-i64:64-i128:128-f80:128-n8:16:32:64-S128"
target triple = "x86_64-pc-linux-gnu"

%struct.GeoHashRange = type { double, double }
%struct.GeoHashBits = type { i64, i8 }
%struct.GeoHashArea = type { %struct.GeoHashBits, %struct.GeoHashRange, %struct.GeoHashRange }

; Function Attrs: nounwind uwtable
define dso_local i32 @geohashDecodeAreaToLongLat(ptr noundef %0, ptr noundef %1) #0 {
  %3 = alloca i32, align 4
  %4 = alloca ptr, align 8
  %5 = alloca ptr, align 8
  store ptr %0, ptr %4, align 8, !tbaa !5
  store ptr %1, ptr %5, align 8, !tbaa !28
  %6 = load ptr, ptr %5, align 8, !tbaa !28
  %7 = icmp ne ptr %6, null
  br i1 %7, label %9, label %8

8:                                                ; preds = %2
  store i32 0, ptr %3, align 4
  br label %66

9:                                                ; preds = %2
  %10 = load ptr, ptr %4, align 8, !tbaa !5
  %11 = getelementptr inbounds nuw %struct.GeoHashArea, ptr %10, i32 0, i32 1
  %12 = getelementptr inbounds nuw %struct.GeoHashRange, ptr %11, i32 0, i32 0
  %13 = load double, ptr %12, align 8, !tbaa !26
  %14 = load ptr, ptr %4, align 8, !tbaa !5
  %15 = getelementptr inbounds nuw %struct.GeoHashArea, ptr %14, i32 0, i32 1
  %16 = getelementptr inbounds nuw %struct.GeoHashRange, ptr %15, i32 0, i32 1
  %17 = load double, ptr %16, align 8, !tbaa !27
  %18 = fadd double %13, %17
  %19 = fdiv double %18, 2.000000e+00
  %20 = load ptr, ptr %5, align 8, !tbaa !28
  %21 = getelementptr inbounds double, ptr %20, i64 0
  store double %19, ptr %21, align 8, !tbaa !13
  %22 = load ptr, ptr %5, align 8, !tbaa !28
  %23 = getelementptr inbounds double, ptr %22, i64 0
  %24 = load double, ptr %23, align 8, !tbaa !13
  %25 = fcmp ogt double %24, 1.800000e+02
  br i1 %25, label %26, label %29

26:                                               ; preds = %9
  %27 = load ptr, ptr %5, align 8, !tbaa !28
  %28 = getelementptr inbounds double, ptr %27, i64 0
  store double 1.800000e+02, ptr %28, align 8, !tbaa !13
  br label %29

29:                                               ; preds = %26, %9
  %30 = load ptr, ptr %5, align 8, !tbaa !28
  %31 = getelementptr inbounds double, ptr %30, i64 0
  %32 = load double, ptr %31, align 8, !tbaa !13
  %33 = fcmp olt double %32, -1.800000e+02
  br i1 %33, label %34, label %37

34:                                               ; preds = %29
  %35 = load ptr, ptr %5, align 8, !tbaa !28
  %36 = getelementptr inbounds double, ptr %35, i64 0
  store double -1.800000e+02, ptr %36, align 8, !tbaa !13
  br label %37

37:                                               ; preds = %34, %29
  %38 = load ptr, ptr %4, align 8, !tbaa !5
  %39 = getelementptr inbounds nuw %struct.GeoHashArea, ptr %38, i32 0, i32 2
  %40 = getelementptr inbounds nuw %struct.GeoHashRange, ptr %39, i32 0, i32 0
  %41 = load double, ptr %40, align 8, !tbaa !23
  %42 = load ptr, ptr %4, align 8, !tbaa !5
  %43 = getelementptr inbounds nuw %struct.GeoHashArea, ptr %42, i32 0, i32 2
  %44 = getelementptr inbounds nuw %struct.GeoHashRange, ptr %43, i32 0, i32 1
  %45 = load double, ptr %44, align 8, !tbaa !25
  %46 = fadd double %41, %45
  %47 = fdiv double %46, 2.000000e+00
  %48 = load ptr, ptr %5, align 8, !tbaa !28
  %49 = getelementptr inbounds double, ptr %48, i64 1
  store double %47, ptr %49, align 8, !tbaa !13
  %50 = load ptr, ptr %5, align 8, !tbaa !28
  %51 = getelementptr inbounds double, ptr %50, i64 1
  %52 = load double, ptr %51, align 8, !tbaa !13
  %53 = fcmp ogt double %52, 0x40554345B1A57F00
  br i1 %53, label %54, label %57

54:                                               ; preds = %37
  %55 = load ptr, ptr %5, align 8, !tbaa !28
  %56 = getelementptr inbounds double, ptr %55, i64 1
  store double 0x40554345B1A57F00, ptr %56, align 8, !tbaa !13
  br label %57

57:                                               ; preds = %54, %37
  %58 = load ptr, ptr %5, align 8, !tbaa !28
  %59 = getelementptr inbounds double, ptr %58, i64 1
  %60 = load double, ptr %59, align 8, !tbaa !13
  %61 = fcmp olt double %60, 0xC0554345B1A57F00
  br i1 %61, label %62, label %65

62:                                               ; preds = %57
  %63 = load ptr, ptr %5, align 8, !tbaa !28
  %64 = getelementptr inbounds double, ptr %63, i64 1
  store double 0xC0554345B1A57F00, ptr %64, align 8, !tbaa !13
  br label %65

65:                                               ; preds = %62, %57
  store i32 1, ptr %3, align 4
  br label %66

66:                                               ; preds = %65, %8
  %67 = load i32, ptr %3, align 4
  ret i32 %67
}