; Function Attrs: mustprogress nofree norecurse nosync nounwind willreturn memory(argmem: readwrite) uwtable
define dso_local range(i32 0, 2) i32 @geohashDecodeAreaToLongLat(ptr noundef readonly captures(none) %0, ptr noundef writeonly captures(address_is_null) %1) local_unnamed_addr #1 {
  %.not = icmp eq ptr %1, null
  br i1 %.not, label %21, label %3

3:                                                ; preds = %2
  %4 = getelementptr inbounds nuw i8, ptr %0, i64 16
  %5 = load double, ptr %4, align 8, !tbaa !20
  %6 = getelementptr inbounds nuw i8, ptr %0, i64 24
  %7 = load double, ptr %6, align 8, !tbaa !21
  %8 = fadd double %5, %7
  %9 = fmul double %8, 5.000000e-01
  %10 = fcmp ogt double %9, 1.800000e+02
  %storemerge = select i1 %10, double 1.800000e+02, double %9
  %11 = fcmp olt double %storemerge, -1.800000e+02
  %storemerge16 = select i1 %11, double -1.800000e+02, double %storemerge
  store double %storemerge16, ptr %1, align 8, !tbaa !22
  %12 = getelementptr inbounds nuw i8, ptr %0, i64 32
  %13 = load double, ptr %12, align 8, !tbaa !17
  %14 = getelementptr inbounds nuw i8, ptr %0, i64 40
  %15 = load double, ptr %14, align 8, !tbaa !19
  %16 = fadd double %13, %15
  %17 = fmul double %16, 5.000000e-01
  %18 = getelementptr inbounds nuw i8, ptr %1, i64 8
  %19 = fcmp ogt double %17, 0x40554345B1A57F00
  %storemerge17 = select i1 %19, double 0x40554345B1A57F00, double %17
  %20 = fcmp olt double %storemerge17, 0xC0554345B1A57F00
  %storemerge18 = select i1 %20, double 0xC0554345B1A57F00, double %storemerge17
  store double %storemerge18, ptr %18, align 8, !tbaa !22
  br label %21

21:                                               ; preds = %2, %3
  %.0 = phi i32 [ 1, %3 ], [ 0, %2 ]
  ret i32 %.0
}